; Function Attrs: null_pointer_is_valid sspstrong uwtable
define internal noundef zeroext i1 @test_spice_protocol(ptr noundef %0, ptr noundef %1, ptr noundef %2, ptr readnone captures(none) %3) #0 {
  %5 = tail call i32 @tvb_reported_length(ptr noundef %0)
  %6 = icmp ugt i32 %5, 3
  br i1 %6, label %7, label %12

7:                                                ; preds = %4
  %8 = tail call i32 @tvb_get_ntohl(ptr noundef %0, i32 noundef 0)
  %9 = icmp eq i32 %8, 1380271185
  br i1 %9, label %10, label %12

10:                                               ; preds = %7
  %11 = tail call i32 @dissect_spice(ptr noundef %0, ptr noundef %1, ptr noundef %2, ptr poison)
  br label %12

12:                                               ; preds = %4, %7, %10
  %.0 = phi i1 [ true, %10 ], [ false, %7 ], [ false, %4 ]
  ret i1 %.0
}